(lp0
(dp1
csklearn.metrics.classification
recall_score
p2
cnumpy.core.multiarray
scalar
p3
(cnumpy
dtype
p4
(S'f8'
p5
I0
I1
tp6
Rp7
(I3
S'<'
p8
NNNI-1
I-1
I0
tp9
bS'n\x86\xd9\x8c\x82\x8d\xee?'
p10
tp11
Rp12
sa(dp13
csklearn.metrics.classification
accuracy_score
p14
g3
(g7
S'n\x86\xd9\x8c\x82\x8d\xee?'
p15
tp16
Rp17
sa(dp18
csklearn.metrics.classification
f1_score
p19
g3
(g7
S'\xc3\xad\x84L\xb5S\xee?'
p20
tp21
Rp22
sa.